; Function Attrs: nounwind uwtable
define range(i32 0, 2) i32 @wolfSSL_set_cipher_list(ptr noundef %0, ptr noundef %1) local_unnamed_addr #0 {
  %3 = icmp eq ptr %0, null
  br i1 %3, label %14, label %4

4:                                                ; preds = %2
  %5 = load ptr, ptr %0, align 16, !tbaa !96
  %6 = icmp eq ptr %5, null
  br i1 %6, label %14, label %7

7:                                                ; preds = %4
  %8 = tail call i32 @AllocateSuites(ptr noundef nonnull %0) #22
  %.not = icmp eq i32 %8, 0
  br i1 %.not, label %9, label %14

9:                                                ; preds = %7
  %10 = getelementptr inbounds nuw i8, ptr %0, i64 8
  %11 = load ptr, ptr %10, align 8, !tbaa !176
  %12 = tail call i32 @SetCipherList_ex(ptr noundef null, ptr noundef nonnull %0, ptr noundef %11, ptr noundef %1) #22
  %.not7 = icmp ne i32 %12, 0
  %13 = zext i1 %.not7 to i32
  br label %14

14:                                               ; preds = %7, %2, %4, %9
  %.0 = phi i32 [ %13, %9 ], [ 0, %4 ], [ 0, %2 ], [ 0, %7 ]
  ret i32 %.0
}